; Function Attrs: mustprogress nounwind uwtable
define dso_local void @_ZN16btDbvtBroadphaseD0Ev(ptr noundef nonnull align 8 dereferenceable(256) %this) unnamed_addr #3 align 2 personality ptr @__gxx_personality_v0 {
entry:
  store ptr getelementptr inbounds ({ [16 x ptr] }, ptr @_ZTV16btDbvtBroadphase, i64 0, i32 0, i64 2), ptr %this, align 8
  %m_releasepaircache.i = getelementptr inbounds i8, ptr %this, i64 220
  %0 = load i8, ptr %m_releasepaircache.i, align 4
  %1 = and i8 %0, 1
  %tobool.not.i = icmp eq i8 %1, 0
  br i1 %tobool.not.i, label %if.end.i, label %if.then.i

if.then.i:                                        ; preds = %entry
  %m_paircache.i = getelementptr inbounds i8, ptr %this, i64 160
  %2 = load ptr, ptr %m_paircache.i, align 8
  %vtable.i = load ptr, ptr %2, align 8
  %3 = load ptr, ptr %vtable.i, align 8
  tail call void %3(ptr noundef nonnull align 8 dereferenceable(8) %2) #15
  %4 = load ptr, ptr %m_paircache.i, align 8
  invoke void @_Z21btAlignedFreeInternalPv(ptr noundef %4)
          to label %if.end.i unwind label %terminate.lpad.i

if.end.i:                                         ; preds = %if.then.i, %entry
  %m_rayTestStacks.i = getelementptr inbounds i8, ptr %this, i64 224
  tail call void @_ZN20btAlignedObjectArrayIS_IPK10btDbvtNodeEED2Ev(ptr noundef nonnull align 8 dereferenceable(25) %m_rayTestStacks.i) #15
  br label %arraydestroy.body.i

arraydestroy.body.i:                              ; preds = %arraydestroy.body.i, %if.end.i
  %arraydestroy.elementPast.idx.i = phi i64 [ 136, %if.end.i ], [ %arraydestroy.elementPast.add.i, %arraydestroy.body.i ]
  %arraydestroy.elementPast.add.i = add nsw i64 %arraydestroy.elementPast.idx.i, -64
  %arraydestroy.element.ptr.i = getelementptr inbounds i8, ptr %this, i64 %arraydestroy.elementPast.add.i
  tail call void @_ZN6btDbvtD1Ev(ptr noundef nonnull align 8 dereferenceable(64) %arraydestroy.element.ptr.i) #15
  %arraydestroy.done.i = icmp eq i64 %arraydestroy.elementPast.add.i, 8
  br i1 %arraydestroy.done.i, label %_ZN16btDbvtBroadphaseD2Ev.exit, label %arraydestroy.body.i

terminate.lpad.i:                                 ; preds = %if.then.i
  %5 = landingpad { ptr, i32 }
          catch ptr null
  %6 = extractvalue { ptr, i32 } %5, 0
  tail call void @__clang_call_terminate(ptr %6) #16
  unreachable

_ZN16btDbvtBroadphaseD2Ev.exit:                   ; preds = %arraydestroy.body.i
  tail call void @_ZdlPv(ptr noundef nonnull %this) #17
  ret void
}